target datalayout = "e-m:e-p270:32:32-p271:32:32-p272:64:64-i64:64-i128:128-f80:128-n8:16:32:64-S128"
target triple = "x86_64-pc-linux-gnu"

%struct.nameData = type { [64 x i8] }
%struct.HeapTupleData = type { i32, %struct.ItemPointerData, i32, ptr }
%struct.ItemPointerData = type { %struct.BlockIdData, i16 }
%struct.BlockIdData = type { i16, i16 }
%struct.HeapTupleHeaderData = type { %union.anon.1, %struct.ItemPointerData, i16, i16, i8, [0 x i8] }
%union.anon.1 = type { %struct.HeapTupleFields }
%struct.HeapTupleFields = type { i32, i32, %union.anon.2 }
%union.anon.2 = type { i32 }
%struct.FormData_pg_class = type { i32, %struct.nameData, i32, i32, i32, i32, i32, i32, i32, i32, float, i32, i32, i8, i8, i8, i8, i16, i16, i8, i8, i8, i8, i8, i8, i8, i8, i32, i32, i32 }

@.str.1 = private unnamed_addr constant [9 x i8] c"aclchk.c\00", align 1
@.str.100 = private unnamed_addr constant [36 x i8] c"relation with OID %u does not exist\00", align 1
@__func__.pg_class_aclmask_ext = private unnamed_addr constant [21 x i8] c"pg_class_aclmask_ext\00", align 1

; Function Attrs: inlinehint nounwind uwtable
define internal ptr @DatumGetPointer(i64 noundef %0) #7 {
  %2 = alloca i64, align 8
  store i64 %0, ptr %2, align 8
  %3 = load i64, ptr %2, align 8
  %4 = inttoptr i64 %3 to ptr
  ret ptr %4
}

; Function Attrs: inlinehint nounwind uwtable
define internal ptr @GETSTRUCT(ptr noundef %0) #7 {
  %2 = alloca ptr, align 8
  store ptr %0, ptr %2, align 8
  %3 = load ptr, ptr %2, align 8
  %4 = getelementptr inbounds nuw %struct.HeapTupleData, ptr %3, i32 0, i32 3
  %5 = load ptr, ptr %4, align 8
  %6 = load ptr, ptr %2, align 8
  %7 = getelementptr inbounds nuw %struct.HeapTupleData, ptr %6, i32 0, i32 3
  %8 = load ptr, ptr %7, align 8
  %9 = getelementptr inbounds nuw %struct.HeapTupleHeaderData, ptr %8, i32 0, i32 4
  %10 = load i8, ptr %9, align 2
  %11 = zext i8 %10 to i32
  %12 = sext i32 %11 to i64
  %13 = getelementptr inbounds i8, ptr %5, i64 %12
  ret ptr %13
}

; Function Attrs: inlinehint nounwind uwtable
define internal i64 @ObjectIdGetDatum(i32 noundef %0) #7 {
  %2 = alloca i32, align 4
  store i32 %0, ptr %2, align 4
  %3 = load i32, ptr %2, align 4
  %4 = zext i32 %3 to i64
  ret i64 %4
}

; Function Attrs: nounwind uwtable
define internal i64 @pg_class_aclmask_ext(i32 noundef %0, i32 noundef %1, i64 noundef %2, i32 noundef %3, ptr noundef %4) #0 {
  %6 = alloca i64, align 8
  %7 = alloca i32, align 4
  %8 = alloca i32, align 4
  %9 = alloca i64, align 8
  %10 = alloca i32, align 4
  %11 = alloca ptr, align 8
  %12 = alloca i64, align 8
  %13 = alloca ptr, align 8
  %14 = alloca ptr, align 8
  %15 = alloca i64, align 8
  %16 = alloca i8, align 1
  %17 = alloca ptr, align 8
  %18 = alloca i32, align 4
  %19 = alloca i32, align 4
  store i32 %0, ptr %7, align 4
  store i32 %1, ptr %8, align 4
  store i64 %2, ptr %9, align 8
  store i32 %3, ptr %10, align 4
  store ptr %4, ptr %11, align 8
  call void @llvm.lifetime.start.p0(i64 8, ptr %12) #9
  call void @llvm.lifetime.start.p0(i64 8, ptr %13) #9
  call void @llvm.lifetime.start.p0(i64 8, ptr %14) #9
  call void @llvm.lifetime.start.p0(i64 8, ptr %15) #9
  call void @llvm.lifetime.start.p0(i64 1, ptr %16) #9
  call void @llvm.lifetime.start.p0(i64 8, ptr %17) #9
  call void @llvm.lifetime.start.p0(i64 4, ptr %18) #9
  %20 = load i32, ptr %7, align 4
  %21 = call i64 @ObjectIdGetDatum(i32 noundef %20)
  %22 = call ptr @SearchSysCache1(i32 noundef 57, i64 noundef %21)
  store ptr %22, ptr %13, align 8
  %23 = load ptr, ptr %13, align 8
  %24 = icmp ne ptr %23, null
  br i1 %24, label %44, label %25

25:                                               ; preds = %5
  %26 = load ptr, ptr %11, align 8
  %27 = icmp ne ptr %26, null
  br i1 %27, label %28, label %30

28:                                               ; preds = %25
  %29 = load ptr, ptr %11, align 8
  store i8 1, ptr %29, align 1
  store i64 0, ptr %6, align 8
  store i32 1, ptr %19, align 4
  br label %159

30:                                               ; preds = %25
  br label %31

31:                                               ; preds = %30
  br i1 true, label %32, label %34

32:                                               ; preds = %31
  %33 = call zeroext i1 @errstart_cold(i32 noundef 21, ptr noundef null) #10
  br i1 %33, label %36, label %40

34:                                               ; preds = %31
  %35 = call zeroext i1 @errstart(i32 noundef 21, ptr noundef null)
  br i1 %35, label %36, label %40

36:                                               ; preds = %34, %32
  %37 = call i32 @errcode(i32 noundef 16908420)
  %38 = load i32, ptr %7, align 4
  %39 = call i32 (ptr, ...) @errmsg(ptr noundef @.str.100, i32 noundef %38)
  call void @errfinish(ptr noundef @.str.1, i32 noundef 3277, ptr noundef @__func__.pg_class_aclmask_ext)
  br label %40

40:                                               ; preds = %36, %34, %32
  unreachable

41:                                               ; No predecessors!
  br label %42

42:                                               ; preds = %41
  br label %43

43:                                               ; preds = %42
  br label %44

44:                                               ; preds = %43, %5
  %45 = load ptr, ptr %13, align 8
  %46 = call ptr @GETSTRUCT(ptr noundef %45)
  store ptr %46, ptr %14, align 8
  %47 = load i64, ptr %9, align 8
  %48 = and i64 %47, 285
  %49 = icmp ne i64 %48, 0
  br i1 %49, label %50, label %66

50:                                               ; preds = %44
  %51 = load i32, ptr %7, align 4
  %52 = load ptr, ptr %14, align 8
  %53 = call zeroext i1 @IsSystemClass(i32 noundef %51, ptr noundef %52)
  br i1 %53, label %54, label %66

54:                                               ; preds = %50
  %55 = load ptr, ptr %14, align 8
  %56 = getelementptr inbounds nuw %struct.FormData_pg_class, ptr %55, i32 0, i32 16
  %57 = load i8, ptr %56, align 1
  %58 = sext i8 %57 to i32
  %59 = icmp ne i32 %58, 118
  br i1 %59, label %60, label %66

60:                                               ; preds = %54
  %61 = load i32, ptr %8, align 4
  %62 = call zeroext i1 @superuser_arg(i32 noundef %61)
  br i1 %62, label %66, label %63

63:                                               ; preds = %60
  %64 = load i64, ptr %9, align 8
  %65 = and i64 %64, -286
  store i64 %65, ptr %9, align 8
  br label %66

66:                                               ; preds = %63, %60, %54, %50, %44
  %67 = load i32, ptr %8, align 4
  %68 = call zeroext i1 @superuser_arg(i32 noundef %67)
  br i1 %68, label %69, label %72

69:                                               ; preds = %66
  %70 = load ptr, ptr %13, align 8
  call void @ReleaseSysCache(ptr noundef %70)
  %71 = load i64, ptr %9, align 8
  store i64 %71, ptr %6, align 8
  store i32 1, ptr %19, align 4
  br label %159

72:                                               ; preds = %66
  %73 = load ptr, ptr %14, align 8
  %74 = getelementptr inbounds nuw %struct.FormData_pg_class, ptr %73, i32 0, i32 5
  %75 = load i32, ptr %74, align 4
  store i32 %75, ptr %18, align 4
  %76 = load ptr, ptr %13, align 8
  %77 = call i64 @SysCacheGetAttr(i32 noundef 57, ptr noundef %76, i16 noundef signext 31, ptr noundef %16)
  store i64 %77, ptr %15, align 8
  %78 = load i8, ptr %16, align 1, !range !4, !noundef !5
  %79 = trunc i8 %78 to i1
  br i1 %79, label %80, label %92

80:                                               ; preds = %72
  %81 = load ptr, ptr %14, align 8
  %82 = getelementptr inbounds nuw %struct.FormData_pg_class, ptr %81, i32 0, i32 16
  %83 = load i8, ptr %82, align 1
  %84 = sext i8 %83 to i32
  switch i32 %84, label %88 [
    i32 83, label %85
  ]

85:                                               ; preds = %80
  %86 = load i32, ptr %18, align 4
  %87 = call ptr @acldefault(i32 noundef 37, i32 noundef %86)
  store ptr %87, ptr %17, align 8
  br label %91

88:                                               ; preds = %80
  %89 = load i32, ptr %18, align 4
  %90 = call ptr @acldefault(i32 noundef 41, i32 noundef %89)
  store ptr %90, ptr %17, align 8
  br label %91

91:                                               ; preds = %88, %85
  store i64 0, ptr %15, align 8
  br label %96

92:                                               ; preds = %72
  %93 = load i64, ptr %15, align 8
  %94 = call ptr @DatumGetPointer(i64 noundef %93)
  %95 = call ptr @pg_detoast_datum(ptr noundef %94)
  store ptr %95, ptr %17, align 8
  br label %96

96:                                               ; preds = %92, %91
  %97 = load ptr, ptr %17, align 8
  %98 = load i32, ptr %8, align 4
  %99 = load i32, ptr %18, align 4
  %100 = load i64, ptr %9, align 8
  %101 = load i32, ptr %10, align 4
  %102 = call i64 @aclmask(ptr noundef %97, i32 noundef %98, i32 noundef %99, i64 noundef %100, i32 noundef %101)
  store i64 %102, ptr %12, align 8
  %103 = load ptr, ptr %17, align 8
  %104 = icmp ne ptr %103, null
  br i1 %104, label %105, label %112

105:                                              ; preds = %96
  %106 = load ptr, ptr %17, align 8
  %107 = load i64, ptr %15, align 8
  %108 = call ptr @DatumGetPointer(i64 noundef %107)
  %109 = icmp ne ptr %106, %108
  br i1 %109, label %110, label %112

110:                                              ; preds = %105
  %111 = load ptr, ptr %17, align 8
  call void @pfree(ptr noundef %111)
  br label %112

112:                                              ; preds = %110, %105, %96
  %113 = load ptr, ptr %13, align 8
  call void @ReleaseSysCache(ptr noundef %113)
  %114 = load i64, ptr %9, align 8
  %115 = and i64 %114, 2
  %116 = icmp ne i64 %115, 0
  br i1 %116, label %117, label %127

117:                                              ; preds = %112
  %118 = load i64, ptr %12, align 8
  %119 = and i64 %118, 2
  %120 = icmp ne i64 %119, 0
  br i1 %120, label %127, label %121

121:                                              ; preds = %117
  %122 = load i32, ptr %8, align 4
  %123 = call zeroext i1 @has_privs_of_role(i32 noundef %122, i32 noundef 6181)
  br i1 %123, label %124, label %127

124:                                              ; preds = %121
  %125 = load i64, ptr %12, align 8
  %126 = or i64 %125, 2
  store i64 %126, ptr %12, align 8
  br label %127

127:                                              ; preds = %124, %121, %117, %112
  %128 = load i64, ptr %9, align 8
  %129 = and i64 %128, 13
  %130 = icmp ne i64 %129, 0
  br i1 %130, label %131, label %143

131:                                              ; preds = %127
  %132 = load i64, ptr %12, align 8
  %133 = and i64 %132, 13
  %134 = icmp ne i64 %133, 0
  br i1 %134, label %143, label %135

135:                                              ; preds = %131
  %136 = load i32, ptr %8, align 4
  %137 = call zeroext i1 @has_privs_of_role(i32 noundef %136, i32 noundef 6182)
  br i1 %137, label %138, label %143

138:                                              ; preds = %135
  %139 = load i64, ptr %9, align 8
  %140 = and i64 %139, 13
  %141 = load i64, ptr %12, align 8
  %142 = or i64 %141, %140
  store i64 %142, ptr %12, align 8
  br label %143

143:                                              ; preds = %138, %135, %131, %127
  %144 = load i64, ptr %9, align 8
  %145 = and i64 %144, 16384
  %146 = icmp ne i64 %145, 0
  br i1 %146, label %147, label %157

147:                                              ; preds = %143
  %148 = load i64, ptr %12, align 8
  %149 = and i64 %148, 16384
  %150 = icmp ne i64 %149, 0
  br i1 %150, label %157, label %151

151:                                              ; preds = %147
  %152 = load i32, ptr %8, align 4
  %153 = call zeroext i1 @has_privs_of_role(i32 noundef %152, i32 noundef 6337)
  br i1 %153, label %154, label %157

154:                                              ; preds = %151
  %155 = load i64, ptr %12, align 8
  %156 = or i64 %155, 16384
  store i64 %156, ptr %12, align 8
  br label %157

157:                                              ; preds = %154, %151, %147, %143
  %158 = load i64, ptr %12, align 8
  store i64 %158, ptr %6, align 8
  store i32 1, ptr %19, align 4
  br label %159

159:                                              ; preds = %157, %69, %28
  call void @llvm.lifetime.end.p0(i64 4, ptr %18) #9
  call void @llvm.lifetime.end.p0(i64 8, ptr %17) #9
  call void @llvm.lifetime.end.p0(i64 1, ptr %16) #9
  call void @llvm.lifetime.end.p0(i64 8, ptr %15) #9
  call void @llvm.lifetime.end.p0(i64 8, ptr %14) #9
  call void @llvm.lifetime.end.p0(i64 8, ptr %13) #9
  call void @llvm.lifetime.end.p0(i64 8, ptr %12) #9
  %160 = load i64, ptr %6, align 8
  ret i64 %160
}