; Function Attrs: nounwind uwtable
define internal fastcc i64 @pg_class_aclmask_ext(i32 noundef %0, i32 noundef %1, i64 noundef %2, i32 noundef %3, ptr noundef writeonly captures(address_is_null) %4) unnamed_addr #0 {
  %6 = alloca i8, align 1
  call void @llvm.lifetime.start.p0(i64 1, ptr nonnull %6) #9
  %7 = zext i32 %0 to i64
  %8 = tail call ptr @SearchSysCache1(i32 noundef 57, i64 noundef %7) #9
  %.not = icmp eq ptr %8, null
  br i1 %.not, label %9, label %15

9:                                                ; preds = %5
  %.not53 = icmp eq ptr %4, null
  br i1 %.not53, label %11, label %10

10:                                               ; preds = %9
  store i8 1, ptr %4, align 1
  br label %70

11:                                               ; preds = %9
  %12 = tail call zeroext i1 @errstart_cold(i32 noundef 21, ptr noundef null) #10
  tail call void @llvm.assume(i1 %12)
  %13 = tail call i32 @errcode(i32 noundef 16908420) #9
  %14 = tail call i32 (ptr, ...) @errmsg(ptr noundef nonnull @.str.100, i32 noundef %0) #9
  tail call void @errfinish(ptr noundef nonnull @.str.1, i32 noundef 3277, ptr noundef nonnull @__func__.pg_class_aclmask_ext) #9
  unreachable

15:                                               ; preds = %5
  %16 = getelementptr i8, ptr %8, i64 16
  %.val = load ptr, ptr %16, align 8
  %17 = getelementptr inbounds nuw i8, ptr %.val, i64 22
  %18 = load i8, ptr %17, align 2
  %19 = zext i8 %18 to i64
  %20 = getelementptr inbounds nuw i8, ptr %.val, i64 %19
  %21 = and i64 %2, 285
  %.not54 = icmp eq i64 %21, 0
  br i1 %.not54, label %30, label %22

22:                                               ; preds = %15
  %23 = tail call zeroext i1 @IsSystemClass(i32 noundef %0, ptr noundef nonnull %20) #9
  br i1 %23, label %24, label %30

24:                                               ; preds = %22
  %25 = getelementptr inbounds nuw i8, ptr %20, i64 115
  %26 = load i8, ptr %25, align 1
  %.not55 = icmp eq i8 %26, 118
  br i1 %.not55, label %30, label %27

27:                                               ; preds = %24
  %28 = tail call zeroext i1 @superuser_arg(i32 noundef %1) #9
  %29 = and i64 %2, -286
  %spec.select = select i1 %28, i64 %2, i64 %29
  br label %30

30:                                               ; preds = %27, %24, %22, %15
  %.047 = phi i64 [ %2, %24 ], [ %2, %22 ], [ %2, %15 ], [ %spec.select, %27 ]
  %31 = tail call zeroext i1 @superuser_arg(i32 noundef %1) #9
  br i1 %31, label %32, label %33

32:                                               ; preds = %30
  tail call void @ReleaseSysCache(ptr noundef nonnull %8) #9
  br label %70

33:                                               ; preds = %30
  %34 = getelementptr inbounds nuw i8, ptr %20, i64 80
  %35 = load i32, ptr %34, align 4
  %36 = call i64 @SysCacheGetAttr(i32 noundef 57, ptr noundef nonnull %8, i16 noundef signext 31, ptr noundef nonnull %6) #9
  %37 = load i8, ptr %6, align 1, !range !4, !noundef !5
  %38 = trunc nuw i8 %37 to i1
  br i1 %38, label %39, label %46

39:                                               ; preds = %33
  %40 = getelementptr inbounds nuw i8, ptr %20, i64 115
  %41 = load i8, ptr %40, align 1
  %cond = icmp eq i8 %41, 83
  br i1 %cond, label %42, label %44

42:                                               ; preds = %39
  %43 = call ptr @acldefault(i32 noundef 37, i32 noundef %35) #9
  br label %49

44:                                               ; preds = %39
  %45 = call ptr @acldefault(i32 noundef 41, i32 noundef %35) #9
  br label %49

46:                                               ; preds = %33
  %47 = inttoptr i64 %36 to ptr
  %48 = call ptr @pg_detoast_datum(ptr noundef %47) #9
  br label %49

49:                                               ; preds = %42, %44, %46
  %.046 = phi ptr [ %47, %46 ], [ null, %44 ], [ null, %42 ]
  %.1 = phi ptr [ %48, %46 ], [ %45, %44 ], [ %43, %42 ]
  %50 = call i64 @aclmask(ptr noundef %.1, i32 noundef %1, i32 noundef %35, i64 noundef %.047, i32 noundef %3) #9
  %.not56 = icmp eq ptr %.1, null
  %.not57 = icmp eq ptr %.1, %.046
  %or.cond69 = or i1 %.not56, %.not57
  br i1 %or.cond69, label %52, label %51

51:                                               ; preds = %49
  call void @pfree(ptr noundef nonnull %.1) #9
  br label %52

52:                                               ; preds = %51, %49
  call void @ReleaseSysCache(ptr noundef nonnull %8) #9
  %53 = and i64 %.047, 2
  %.not58 = icmp ne i64 %53, 0
  %54 = and i64 %50, 2
  %.not59 = icmp eq i64 %54, 0
  %or.cond = select i1 %.not58, i1 %.not59, i1 false
  br i1 %or.cond, label %55, label %58

55:                                               ; preds = %52
  %56 = call zeroext i1 @has_privs_of_role(i32 noundef %1, i32 noundef 6181) #9
  %57 = or disjoint i64 %50, 2
  %spec.select64 = select i1 %56, i64 %57, i64 %50
  br label %58

58:                                               ; preds = %55, %52
  %.048 = phi i64 [ %50, %52 ], [ %spec.select64, %55 ]
  %59 = and i64 %.047, 13
  %.not60 = icmp ne i64 %59, 0
  %60 = and i64 %.048, 13
  %.not61 = icmp eq i64 %60, 0
  %or.cond65 = select i1 %.not60, i1 %.not61, i1 false
  br i1 %or.cond65, label %61, label %64

61:                                               ; preds = %58
  %62 = call zeroext i1 @has_privs_of_role(i32 noundef %1, i32 noundef 6182) #9
  %63 = select i1 %62, i64 %59, i64 0
  %spec.select66 = or disjoint i64 %63, %.048
  br label %64

64:                                               ; preds = %61, %58
  %.149 = phi i64 [ %.048, %58 ], [ %spec.select66, %61 ]
  %65 = and i64 %.047, 16384
  %.not62 = icmp ne i64 %65, 0
  %66 = and i64 %.149, 16384
  %.not63 = icmp eq i64 %66, 0
  %or.cond67 = select i1 %.not62, i1 %.not63, i1 false
  br i1 %or.cond67, label %67, label %70

67:                                               ; preds = %64
  %68 = call zeroext i1 @has_privs_of_role(i32 noundef %1, i32 noundef 6337) #9
  %69 = or disjoint i64 %.149, 16384
  %spec.select68 = select i1 %68, i64 %69, i64 %.149
  br label %70

70:                                               ; preds = %67, %64, %32, %10
  %.0 = phi i64 [ %.047, %32 ], [ 0, %10 ], [ %.149, %64 ], [ %spec.select68, %67 ]
  call void @llvm.lifetime.end.p0(i64 1, ptr nonnull %6) #9
  ret i64 %.0
}